; Function Attrs: mustprogress uwtable
define noundef zeroext i1 @_ZN7rocksdb13InternalStats33HandleNumImmutableMemTableFlushedEPmPNS_6DBImplEPNS_7VersionE(ptr nocapture noundef nonnull readonly align 8 dereferenceable(1944) %this, ptr nocapture noundef writeonly %value, ptr nocapture readnone %0, ptr nocapture readnone %1) #4 align 2 {
entry:
  %cfd_ = getelementptr inbounds i8, ptr %this, i64 1928
  %2 = load ptr, ptr %cfd_, align 8
  %imm_.i = getelementptr inbounds i8, ptr %2, i64 2408
  %call3 = tail call noundef i32 @_ZNK7rocksdb12MemTableList10NumFlushedEv(ptr noundef nonnull align 8 dereferenceable(41) %imm_.i)
  %conv = sext i32 %call3 to i64
  store i64 %conv, ptr %value, align 8
  ret i1 true
}